; ModuleID = '36/1684.c'
source_filename = "36/1684.c"
target datalayout = "e-m:e-p270:32:32-p271:32:32-p272:64:64-i64:64-f80:128-n8:16:32:64-S128"
target triple = "x86_64-pc-linux-gnu"

@.str = private unnamed_addr constant [5 x i8] c"%s%s\00", align 1
@.str.1 = private unnamed_addr constant [5 x i8] c"YES\0A\00", align 1
@.str.2 = private unnamed_addr constant [4 x i8] c"NO\0A\00", align 1

; Function Attrs: noinline nounwind uwtable
define dso_local i32 @main() #0 {
  %1 = alloca i32, align 4
  %2 = alloca [1000 x i8], align 16
  %3 = alloca [1000 x i8], align 16
  %4 = alloca i8, align 1
  %5 = alloca i32, align 4
  %6 = alloca i32, align 4
  %7 = alloca i32, align 4
  %8 = alloca i32, align 4
  %9 = alloca i32, align 4
  %10 = alloca i32, align 4
  store i32 0, i32* %1, align 4
  %11 = getelementptr inbounds [1000 x i8], [1000 x i8]* %2, i64 0, i64 0
  %12 = getelementptr inbounds [1000 x i8], [1000 x i8]* %3, i64 0, i64 0
  %13 = call i32 (i8*, ...) @__isoc99_scanf(i8* getelementptr inbounds ([5 x i8], [5 x i8]* @.str, i64 0, i64 0), i8* %11, i8* %12)
  %14 = getelementptr inbounds [1000 x i8], [1000 x i8]* %2, i64 0, i64 0
  %15 = call i64 @strlen(i8* %14) #3
  %16 = trunc i64 %15 to i32
  store i32 %16, i32* %5, align 4
  %17 = getelementptr inbounds [1000 x i8], [1000 x i8]* %3, i64 0, i64 0
  %18 = call i64 @strlen(i8* %17) #3
  %19 = trunc i64 %18 to i32
  store i32 %19, i32* %6, align 4
  store i32 0, i32* %7, align 4
  br label %20

20:                                               ; preds = %68, %0
  %21 = load i32, i32* %7, align 4
  %22 = load i32, i32* %5, align 4
  %23 = icmp slt i32 %21, %22
  br i1 %23, label %24, label %71

24:                                               ; preds = %20
  store i32 0, i32* %8, align 4
  br label %25

25:                                               ; preds = %64, %24
  %26 = load i32, i32* %8, align 4
  %27 = load i32, i32* %5, align 4
  %28 = load i32, i32* %7, align 4
  %29 = sub nsw i32 %27, %28
  %30 = sub nsw i32 %29, 1
  %31 = icmp slt i32 %26, %30
  br i1 %31, label %32, label %67

32:                                               ; preds = %25
  %33 = load i32, i32* %8, align 4
  %34 = sext i32 %33 to i64
  %35 = getelementptr inbounds [1000 x i8], [1000 x i8]* %2, i64 0, i64 %34
  %36 = load i8, i8* %35, align 1
  %37 = sext i8 %36 to i32
  %38 = load i32, i32* %8, align 4
  %39 = add nsw i32 %38, 1
  %40 = sext i32 %39 to i64
  %41 = getelementptr inbounds [1000 x i8], [1000 x i8]* %2, i64 0, i64 %40
  %42 = load i8, i8* %41, align 1
  %43 = sext i8 %42 to i32
  %44 = icmp sgt i32 %37, %43
  br i1 %44, label %45, label %63

45:                                               ; preds = %32
  %46 = load i32, i32* %8, align 4
  %47 = sext i32 %46 to i64
  %48 = getelementptr inbounds [1000 x i8], [1000 x i8]* %2, i64 0, i64 %47
  %49 = load i8, i8* %48, align 1
  store i8 %49, i8* %4, align 1
  %50 = load i32, i32* %8, align 4
  %51 = add nsw i32 %50, 1
  %52 = sext i32 %51 to i64
  %53 = getelementptr inbounds [1000 x i8], [1000 x i8]* %2, i64 0, i64 %52
  %54 = load i8, i8* %53, align 1
  %55 = load i32, i32* %8, align 4
  %56 = sext i32 %55 to i64
  %57 = getelementptr inbounds [1000 x i8], [1000 x i8]* %2, i64 0, i64 %56
  store i8 %54, i8* %57, align 1
  %58 = load i8, i8* %4, align 1
  %59 = load i32, i32* %8, align 4
  %60 = add nsw i32 %59, 1
  %61 = sext i32 %60 to i64
  %62 = getelementptr inbounds [1000 x i8], [1000 x i8]* %2, i64 0, i64 %61
  store i8 %58, i8* %62, align 1
  br label %63

63:                                               ; preds = %45, %32
  br label %64

64:                                               ; preds = %63
  %65 = load i32, i32* %8, align 4
  %66 = add nsw i32 %65, 1
  store i32 %66, i32* %8, align 4
  br label %25

67:                                               ; preds = %25
  br label %68

68:                                               ; preds = %67
  %69 = load i32, i32* %7, align 4
  %70 = add nsw i32 %69, 1
  store i32 %70, i32* %7, align 4
  br label %20

71:                                               ; preds = %20
  store i32 0, i32* %9, align 4
  br label %72

72:                                               ; preds = %120, %71
  %73 = load i32, i32* %9, align 4
  %74 = load i32, i32* %6, align 4
  %75 = icmp slt i32 %73, %74
  br i1 %75, label %76, label %123

76:                                               ; preds = %72
  store i32 0, i32* %10, align 4
  br label %77

77:                                               ; preds = %116, %76
  %78 = load i32, i32* %10, align 4
  %79 = load i32, i32* %6, align 4
  %80 = load i32, i32* %9, align 4
  %81 = sub nsw i32 %79, %80
  %82 = sub nsw i32 %81, 1
  %83 = icmp slt i32 %78, %82
  br i1 %83, label %84, label %119

84:                                               ; preds = %77
  %85 = load i32, i32* %10, align 4
  %86 = sext i32 %85 to i64
  %87 = getelementptr inbounds [1000 x i8], [1000 x i8]* %3, i64 0, i64 %86
  %88 = load i8, i8* %87, align 1
  %89 = sext i8 %88 to i32
  %90 = load i32, i32* %10, align 4
  %91 = add nsw i32 %90, 1
  %92 = sext i32 %91 to i64
  %93 = getelementptr inbounds [1000 x i8], [1000 x i8]* %3, i64 0, i64 %92
  %94 = load i8, i8* %93, align 1
  %95 = sext i8 %94 to i32
  %96 = icmp sgt i32 %89, %95
  br i1 %96, label %97, label %115

97:                                               ; preds = %84
  %98 = load i32, i32* %10, align 4
  %99 = sext i32 %98 to i64
  %100 = getelementptr inbounds [1000 x i8], [1000 x i8]* %3, i64 0, i64 %99
  %101 = load i8, i8* %100, align 1
  store i8 %101, i8* %4, align 1
  %102 = load i32, i32* %10, align 4
  %103 = add nsw i32 %102, 1
  %104 = sext i32 %103 to i64
  %105 = getelementptr inbounds [1000 x i8], [1000 x i8]* %3, i64 0, i64 %104
  %106 = load i8, i8* %105, align 1
  %107 = load i32, i32* %10, align 4
  %108 = sext i32 %107 to i64
  %109 = getelementptr inbounds [1000 x i8], [1000 x i8]* %3, i64 0, i64 %108
  store i8 %106, i8* %109, align 1
  %110 = load i8, i8* %4, align 1
  %111 = load i32, i32* %10, align 4
  %112 = add nsw i32 %111, 1
  %113 = sext i32 %112 to i64
  %114 = getelementptr inbounds [1000 x i8], [1000 x i8]* %3, i64 0, i64 %113
  store i8 %110, i8* %114, align 1
  br label %115

115:                                              ; preds = %97, %84
  br label %116

116:                                              ; preds = %115
  %117 = load i32, i32* %10, align 4
  %118 = add nsw i32 %117, 1
  store i32 %118, i32* %10, align 4
  br label %77

119:                                              ; preds = %77
  br label %120

120:                                              ; preds = %119
  %121 = load i32, i32* %9, align 4
  %122 = add nsw i32 %121, 1
  store i32 %122, i32* %9, align 4
  br label %72

123:                                              ; preds = %72
  %124 = getelementptr inbounds [1000 x i8], [1000 x i8]* %2, i64 0, i64 0
  %125 = getelementptr inbounds [1000 x i8], [1000 x i8]* %3, i64 0, i64 0
  %126 = call i32 @strcmp(i8* %124, i8* %125) #3
  %127 = icmp eq i32 %126, 0
  br i1 %127, label %128, label %130

128:                                              ; preds = %123
  %129 = call i32 (i8*, ...) @printf(i8* getelementptr inbounds ([5 x i8], [5 x i8]* @.str.1, i64 0, i64 0))
  br label %132

130:                                              ; preds = %123
  %131 = call i32 (i8*, ...) @printf(i8* getelementptr inbounds ([4 x i8], [4 x i8]* @.str.2, i64 0, i64 0))
  br label %132

132:                                              ; preds = %130, %128
  %133 = load i32, i32* %1, align 4
  ret i32 %133
}

declare dso_local i32 @__isoc99_scanf(i8*, ...) #1

; Function Attrs: nounwind readonly
declare dso_local i64 @strlen(i8*) #2

; Function Attrs: nounwind readonly
declare dso_local i32 @strcmp(i8*, i8*) #2

declare dso_local i32 @printf(i8*, ...) #1


!llvm.module.flags = !{!0}
!llvm.ident = !{!1}

!0 = !{i32 1, !"wchar_size", i32 4}
!1 = !{!"clang version 10.0.0-4ubuntu1 "}
